target datalayout = "e-m:e-p270:32:32-p271:32:32-p272:64:64-i64:64-i128:128-f80:128-n8:16:32:64-S128"
target triple = "x86_64-pc-linux-gnu"

%struct.APK_DATA_st = type { ptr, i64, i32 }
%struct.ossl_param_st = type { ptr, i32, ptr, i64, i64 }

@mainctx = internal global ptr null, align 8
@.str.28 = private unnamed_addr constant [34 x i8] c"../openssl/test/evp_extra_test2.c\00", align 1
@.str.32 = private unnamed_addr constant [9 x i8] c"SHA2-256\00", align 1
@.str.69 = private unnamed_addr constant [2 x i8] c"0\00", align 1
@.str.135 = private unnamed_addr constant [7 x i8] c"digest\00", align 1
@.str.182 = private unnamed_addr constant [75 x i8] c"pkey = d2i_AutoPrivateKey_ex(NULL, &pdata, keydata[0].size, mainctx, NULL)\00", align 1
@.str.209 = private unnamed_addr constant [9 x i8] c"pad-mode\00", align 1
@.str.210 = private unnamed_addr constant [55 x i8] c"pctx = EVP_PKEY_CTX_new_from_pkey(mainctx, pkey, NULL)\00", align 1
@.str.211 = private unnamed_addr constant [40 x i8] c"EVP_PKEY_sign_init_ex(pctx, sig_params)\00", align 1
@.str.212 = private unnamed_addr constant [58 x i8] c"EVP_PKEY_sign(pctx, NULL, &sig_len, mdbuf, sizeof(mdbuf))\00", align 1
@.str.213 = private unnamed_addr constant [8 x i8] c"sig_len\00", align 1
@.str.214 = private unnamed_addr constant [30 x i8] c"sig = OPENSSL_malloc(sig_len)\00", align 1
@.str.215 = private unnamed_addr constant [57 x i8] c"EVP_PKEY_sign(pctx, sig, &sig_len, mdbuf, sizeof(mdbuf))\00", align 1

; Function Attrs: nounwind uwtable
define internal i32 @test_rsa_pss_sign() #0 {
  %1 = alloca ptr, align 8
  %2 = alloca ptr, align 8
  %3 = alloca i32, align 4
  %4 = alloca ptr, align 8
  %5 = alloca ptr, align 8
  %6 = alloca [3 x %struct.ossl_param_st], align 16
  %7 = alloca [32 x i8], align 16
  %8 = alloca i32, align 4
  %9 = alloca ptr, align 8
  %10 = alloca i64, align 8
  %11 = alloca %struct.ossl_param_st, align 8
  %12 = alloca %struct.ossl_param_st, align 8
  %13 = alloca %struct.ossl_param_st, align 8
  call void @llvm.lifetime.start.p0(i64 8, ptr %1) #7
  store ptr null, ptr %1, align 8, !tbaa !13
  call void @llvm.lifetime.start.p0(i64 8, ptr %2) #7
  store ptr null, ptr %2, align 8, !tbaa !29
  call void @llvm.lifetime.start.p0(i64 4, ptr %3) #7
  store i32 0, ptr %3, align 4, !tbaa !11
  call void @llvm.lifetime.start.p0(i64 8, ptr %4) #7
  %14 = load ptr, ptr @keydata, align 16, !tbaa !17
  store ptr %14, ptr %4, align 8, !tbaa !21
  call void @llvm.lifetime.start.p0(i64 8, ptr %5) #7
  store ptr @.str.32, ptr %5, align 8, !tbaa !21
  call void @llvm.lifetime.start.p0(i64 120, ptr %6) #7
  call void @llvm.lifetime.start.p0(i64 32, ptr %7) #7
  call void @llvm.memset.p0.i64(ptr align 16 %7, i8 0, i64 32, i1 false)
  call void @llvm.lifetime.start.p0(i64 4, ptr %8) #7
  store i32 6, ptr %8, align 4, !tbaa !11
  call void @llvm.lifetime.start.p0(i64 8, ptr %9) #7
  store ptr null, ptr %9, align 8, !tbaa !21
  call void @llvm.lifetime.start.p0(i64 8, ptr %10) #7
  store i64 0, ptr %10, align 8, !tbaa !23
  %15 = getelementptr inbounds [3 x %struct.ossl_param_st], ptr %6, i64 0, i64 0
  call void @llvm.lifetime.start.p0(i64 40, ptr %11) #7
  call void @OSSL_PARAM_construct_int(ptr dead_on_unwind writable sret(%struct.ossl_param_st) align 8 %11, ptr noundef @.str.209, ptr noundef %8)
  call void @llvm.memcpy.p0.p0.i64(ptr align 16 %15, ptr align 8 %11, i64 40, i1 false), !tbaa.struct !37
  call void @llvm.lifetime.end.p0(i64 40, ptr %11) #7
  %16 = getelementptr inbounds [3 x %struct.ossl_param_st], ptr %6, i64 0, i64 1
  call void @llvm.lifetime.start.p0(i64 40, ptr %12) #7
  %17 = load ptr, ptr %5, align 8, !tbaa !21
  call void @OSSL_PARAM_construct_utf8_string(ptr dead_on_unwind writable sret(%struct.ossl_param_st) align 8 %12, ptr noundef @.str.135, ptr noundef %17, i64 noundef 0)
  call void @llvm.memcpy.p0.p0.i64(ptr align 8 %16, ptr align 8 %12, i64 40, i1 false), !tbaa.struct !37
  call void @llvm.lifetime.end.p0(i64 40, ptr %12) #7
  %18 = getelementptr inbounds [3 x %struct.ossl_param_st], ptr %6, i64 0, i64 2
  call void @llvm.lifetime.start.p0(i64 40, ptr %13) #7
  call void @OSSL_PARAM_construct_end(ptr dead_on_unwind writable sret(%struct.ossl_param_st) align 8 %13)
  call void @llvm.memcpy.p0.p0.i64(ptr align 16 %18, ptr align 8 %13, i64 40, i1 false), !tbaa.struct !37
  call void @llvm.lifetime.end.p0(i64 40, ptr %13) #7
  %19 = load i64, ptr getelementptr inbounds nuw (%struct.APK_DATA_st, ptr @keydata, i32 0, i32 1), align 8, !tbaa !22
  %20 = load ptr, ptr @mainctx, align 8, !tbaa !4
  %21 = call ptr @d2i_AutoPrivateKey_ex(ptr noundef null, ptr noundef %4, i64 noundef %19, ptr noundef %20, ptr noundef null)
  store ptr %21, ptr %1, align 8, !tbaa !13
  %22 = call i32 @test_ptr(ptr noundef @.str.28, i32 noundef 1307, ptr noundef @.str.182, ptr noundef %21)
  %23 = icmp ne i32 %22, 0
  br i1 %23, label %24, label %59

24:                                               ; preds = %0
  %25 = load ptr, ptr @mainctx, align 8, !tbaa !4
  %26 = load ptr, ptr %1, align 8, !tbaa !13
  %27 = call ptr @EVP_PKEY_CTX_new_from_pkey(ptr noundef %25, ptr noundef %26, ptr noundef null)
  store ptr %27, ptr %2, align 8, !tbaa !29
  %28 = call i32 @test_ptr(ptr noundef @.str.28, i32 noundef 1308, ptr noundef @.str.210, ptr noundef %27)
  %29 = icmp ne i32 %28, 0
  br i1 %29, label %30, label %59

30:                                               ; preds = %24
  %31 = load ptr, ptr %2, align 8, !tbaa !29
  %32 = getelementptr inbounds [3 x %struct.ossl_param_st], ptr %6, i64 0, i64 0
  %33 = call i32 @EVP_PKEY_sign_init_ex(ptr noundef %31, ptr noundef %32)
  %34 = call i32 @test_int_gt(ptr noundef @.str.28, i32 noundef 1309, ptr noundef @.str.211, ptr noundef @.str.69, i32 noundef %33, i32 noundef 0)
  %35 = icmp ne i32 %34, 0
  br i1 %35, label %36, label %59

36:                                               ; preds = %30
  %37 = load ptr, ptr %2, align 8, !tbaa !29
  %38 = getelementptr inbounds [32 x i8], ptr %7, i64 0, i64 0
  %39 = call i32 @EVP_PKEY_sign(ptr noundef %37, ptr noundef null, ptr noundef %10, ptr noundef %38, i64 noundef 32)
  %40 = call i32 @test_int_gt(ptr noundef @.str.28, i32 noundef 1311, ptr noundef @.str.212, ptr noundef @.str.69, i32 noundef %39, i32 noundef 0)
  %41 = icmp ne i32 %40, 0
  br i1 %41, label %42, label %59

42:                                               ; preds = %36
  %43 = load i64, ptr %10, align 8, !tbaa !23
  %44 = trunc i64 %43 to i32
  %45 = call i32 @test_int_gt(ptr noundef @.str.28, i32 noundef 1312, ptr noundef @.str.213, ptr noundef @.str.69, i32 noundef %44, i32 noundef 0)
  %46 = icmp ne i32 %45, 0
  br i1 %46, label %47, label %59

47:                                               ; preds = %42
  %48 = load i64, ptr %10, align 8, !tbaa !23
  %49 = call noalias ptr @CRYPTO_malloc(i64 noundef %48, ptr noundef @.str.28, i32 noundef 1313)
  store ptr %49, ptr %9, align 8, !tbaa !21
  %50 = call i32 @test_ptr(ptr noundef @.str.28, i32 noundef 1313, ptr noundef @.str.214, ptr noundef %49)
  %51 = icmp ne i32 %50, 0
  br i1 %51, label %52, label %59

52:                                               ; preds = %47
  %53 = load ptr, ptr %2, align 8, !tbaa !29
  %54 = load ptr, ptr %9, align 8, !tbaa !21
  %55 = getelementptr inbounds [32 x i8], ptr %7, i64 0, i64 0
  %56 = call i32 @EVP_PKEY_sign(ptr noundef %53, ptr noundef %54, ptr noundef %10, ptr noundef %55, i64 noundef 32)
  %57 = call i32 @test_int_gt(ptr noundef @.str.28, i32 noundef 1315, ptr noundef @.str.215, ptr noundef @.str.69, i32 noundef %56, i32 noundef 0)
  %58 = icmp ne i32 %57, 0
  br label %59

59:                                               ; preds = %52, %47, %42, %36, %30, %24, %0
  %60 = phi i1 [ false, %47 ], [ false, %42 ], [ false, %36 ], [ false, %30 ], [ false, %24 ], [ false, %0 ], [ %58, %52 ]
  %61 = zext i1 %60 to i32
  store i32 %61, ptr %3, align 4, !tbaa !11
  %62 = load ptr, ptr %2, align 8, !tbaa !29
  call void @EVP_PKEY_CTX_free(ptr noundef %62)
  %63 = load ptr, ptr %9, align 8, !tbaa !21
  call void @CRYPTO_free(ptr noundef %63, ptr noundef @.str.28, i32 noundef 1318)
  %64 = load ptr, ptr %1, align 8, !tbaa !13
  call void @EVP_PKEY_free(ptr noundef %64)
  %65 = load i32, ptr %3, align 4, !tbaa !11
  call void @llvm.lifetime.end.p0(i64 8, ptr %10) #7
  call void @llvm.lifetime.end.p0(i64 8, ptr %9) #7
  call void @llvm.lifetime.end.p0(i64 4, ptr %8) #7
  call void @llvm.lifetime.end.p0(i64 32, ptr %7) #7
  call void @llvm.lifetime.end.p0(i64 120, ptr %6) #7
  call void @llvm.lifetime.end.p0(i64 8, ptr %5) #7
  call void @llvm.lifetime.end.p0(i64 8, ptr %4) #7
  call void @llvm.lifetime.end.p0(i64 4, ptr %3) #7
  call void @llvm.lifetime.end.p0(i64 8, ptr %2) #7
  call void @llvm.lifetime.end.p0(i64 8, ptr %1) #7
  ret i32 %65
}