; Function Attrs: nounwind uwtable
define internal range(i32 0, 2) i32 @test_rsa_pss_sign() #0 {
  %1 = alloca ptr, align 8
  %2 = alloca [3 x %struct.ossl_param_st], align 16
  %3 = alloca [32 x i8], align 16
  %4 = alloca i32, align 4
  %5 = alloca i64, align 8
  %6 = alloca %struct.ossl_param_st, align 8
  %7 = alloca %struct.ossl_param_st, align 8
  call void @llvm.lifetime.start.p0(i64 8, ptr nonnull %1) #7
  store ptr @kExampleRSAKeyDER, ptr %1, align 8, !tbaa !18
  call void @llvm.lifetime.start.p0(i64 120, ptr nonnull %2) #7
  call void @llvm.lifetime.start.p0(i64 32, ptr nonnull %3) #7
  call void @llvm.memset.p0.i64(ptr noundef nonnull align 16 dereferenceable(32) %3, i8 0, i64 32, i1 false)
  call void @llvm.lifetime.start.p0(i64 4, ptr nonnull %4) #7
  store i32 6, ptr %4, align 4, !tbaa !22
  call void @llvm.lifetime.start.p0(i64 8, ptr nonnull %5) #7
  store i64 0, ptr %5, align 8, !tbaa !19
  call void @OSSL_PARAM_construct_int(ptr dead_on_unwind nonnull writable sret(%struct.ossl_param_st) align 8 %2, ptr noundef nonnull @.str.209, ptr noundef nonnull %4) #7
  %8 = getelementptr inbounds nuw i8, ptr %2, i64 40
  call void @llvm.lifetime.start.p0(i64 40, ptr nonnull %6) #7
  call void @OSSL_PARAM_construct_utf8_string(ptr dead_on_unwind nonnull writable sret(%struct.ossl_param_st) align 8 %6, ptr noundef nonnull @.str.135, ptr noundef nonnull @.str.32, i64 noundef 0) #7
  call void @llvm.memcpy.p0.p0.i64(ptr noundef nonnull align 8 dereferenceable(40) %8, ptr noundef nonnull align 8 dereferenceable(40) %6, i64 40, i1 false), !tbaa.struct !23
  call void @llvm.lifetime.end.p0(i64 40, ptr nonnull %6) #7
  %9 = getelementptr inbounds nuw i8, ptr %2, i64 80
  call void @llvm.lifetime.start.p0(i64 40, ptr nonnull %7) #7
  call void @OSSL_PARAM_construct_end(ptr dead_on_unwind nonnull writable sret(%struct.ossl_param_st) align 8 %7) #7
  call void @llvm.memcpy.p0.p0.i64(ptr noundef nonnull align 16 dereferenceable(40) %9, ptr noundef nonnull align 8 dereferenceable(40) %7, i64 40, i1 false), !tbaa.struct !23
  call void @llvm.lifetime.end.p0(i64 40, ptr nonnull %7) #7
  %10 = load ptr, ptr @mainctx, align 8, !tbaa !4
  %11 = call ptr @d2i_AutoPrivateKey_ex(ptr noundef null, ptr noundef nonnull %1, i64 noundef 608, ptr noundef %10, ptr noundef null) #7
  %12 = call i32 @test_ptr(ptr noundef nonnull @.str.28, i32 noundef 1307, ptr noundef nonnull @.str.182, ptr noundef %11) #7
  %.not = icmp eq i32 %12, 0
  br i1 %.not, label %36, label %13

13:                                               ; preds = %0
  %14 = load ptr, ptr @mainctx, align 8, !tbaa !4
  %15 = call ptr @EVP_PKEY_CTX_new_from_pkey(ptr noundef %14, ptr noundef %11, ptr noundef null) #7
  %16 = call i32 @test_ptr(ptr noundef nonnull @.str.28, i32 noundef 1308, ptr noundef nonnull @.str.210, ptr noundef %15) #7
  %.not10 = icmp eq i32 %16, 0
  br i1 %.not10, label %36, label %17

17:                                               ; preds = %13
  %18 = call i32 @EVP_PKEY_sign_init_ex(ptr noundef %15, ptr noundef nonnull %2) #7
  %19 = call i32 @test_int_gt(ptr noundef nonnull @.str.28, i32 noundef 1309, ptr noundef nonnull @.str.211, ptr noundef nonnull @.str.69, i32 noundef %18, i32 noundef 0) #7
  %.not11 = icmp eq i32 %19, 0
  br i1 %.not11, label %36, label %20

20:                                               ; preds = %17
  %21 = call i32 @EVP_PKEY_sign(ptr noundef %15, ptr noundef null, ptr noundef nonnull %5, ptr noundef nonnull %3, i64 noundef 32) #7
  %22 = call i32 @test_int_gt(ptr noundef nonnull @.str.28, i32 noundef 1311, ptr noundef nonnull @.str.212, ptr noundef nonnull @.str.69, i32 noundef %21, i32 noundef 0) #7
  %.not12 = icmp eq i32 %22, 0
  br i1 %.not12, label %36, label %23

23:                                               ; preds = %20
  %24 = load i64, ptr %5, align 8, !tbaa !19
  %25 = trunc i64 %24 to i32
  %26 = call i32 @test_int_gt(ptr noundef nonnull @.str.28, i32 noundef 1312, ptr noundef nonnull @.str.213, ptr noundef nonnull @.str.69, i32 noundef %25, i32 noundef 0) #7
  %.not13 = icmp eq i32 %26, 0
  br i1 %.not13, label %36, label %27

27:                                               ; preds = %23
  %28 = load i64, ptr %5, align 8, !tbaa !19
  %29 = call noalias ptr @CRYPTO_malloc(i64 noundef %28, ptr noundef nonnull @.str.28, i32 noundef 1313) #7
  %30 = call i32 @test_ptr(ptr noundef nonnull @.str.28, i32 noundef 1313, ptr noundef nonnull @.str.214, ptr noundef %29) #7
  %.not14 = icmp eq i32 %30, 0
  br i1 %.not14, label %36, label %31

31:                                               ; preds = %27
  %32 = call i32 @EVP_PKEY_sign(ptr noundef %15, ptr noundef %29, ptr noundef nonnull %5, ptr noundef nonnull %3, i64 noundef 32) #7
  %33 = call i32 @test_int_gt(ptr noundef nonnull @.str.28, i32 noundef 1315, ptr noundef nonnull @.str.215, ptr noundef nonnull @.str.69, i32 noundef %32, i32 noundef 0) #7
  %34 = icmp ne i32 %33, 0
  %35 = zext i1 %34 to i32
  br label %36

36:                                               ; preds = %31, %27, %23, %20, %17, %13, %0
  %.09 = phi ptr [ %15, %31 ], [ %15, %27 ], [ %15, %23 ], [ %15, %20 ], [ %15, %17 ], [ %15, %13 ], [ null, %0 ]
  %.0 = phi ptr [ %29, %31 ], [ %29, %27 ], [ null, %23 ], [ null, %20 ], [ null, %17 ], [ null, %13 ], [ null, %0 ]
  %37 = phi i32 [ %35, %31 ], [ 0, %27 ], [ 0, %23 ], [ 0, %20 ], [ 0, %17 ], [ 0, %13 ], [ 0, %0 ]
  call void @EVP_PKEY_CTX_free(ptr noundef %.09) #7
  call void @CRYPTO_free(ptr noundef %.0, ptr noundef nonnull @.str.28, i32 noundef 1318) #7
  call void @EVP_PKEY_free(ptr noundef %11) #7
  call void @llvm.lifetime.end.p0(i64 8, ptr nonnull %5) #7
  call void @llvm.lifetime.end.p0(i64 4, ptr nonnull %4) #7
  call void @llvm.lifetime.end.p0(i64 32, ptr nonnull %3) #7
  call void @llvm.lifetime.end.p0(i64 120, ptr nonnull %2) #7
  call void @llvm.lifetime.end.p0(i64 8, ptr nonnull %1) #7
  ret i32 %37
}